target datalayout = "e-m:e-p270:32:32-p271:32:32-p272:64:64-i64:64-i128:128-f80:128-n8:16:32:64-S128"
target triple = "x86_64-pc-linux-gnu"

%struct.BufFile = type { i32, ptr, i8, i8, i8, ptr, ptr, ptr, i32, i64, i32, i32, %union.PGAlignedBlock }
%union.PGAlignedBlock = type { double, [8184 x i8] }

; Function Attrs: nounwind uwtable
define internal void @BufFileFlush(ptr noundef %0) #0 {
  %2 = alloca ptr, align 8
  store ptr %0, ptr %2, align 8
  %3 = load ptr, ptr %2, align 8
  %4 = getelementptr inbounds nuw %struct.BufFile, ptr %3, i32 0, i32 3
  %5 = load i8, ptr %4, align 1, !range !4, !noundef !5
  %6 = trunc i8 %5 to i1
  br i1 %6, label %7, label %9

7:                                                ; preds = %1
  %8 = load ptr, ptr %2, align 8
  call void @BufFileDumpBuffer(ptr noundef %8)
  br label %9

9:                                                ; preds = %7, %1
  ret void
}

; Function Attrs: nounwind uwtable
define dso_local void @BufFileExportFileSet(ptr noundef %0) #0 {
  %2 = alloca ptr, align 8
  store ptr %0, ptr %2, align 8
  %3 = load ptr, ptr %2, align 8
  call void @BufFileFlush(ptr noundef %3)
  %4 = load ptr, ptr %2, align 8
  %5 = getelementptr inbounds nuw %struct.BufFile, ptr %4, i32 0, i32 4
  store i8 1, ptr %5, align 2
  ret void
}