; Function Attrs: nounwind uwtable
define dso_local void @BufFileExportFileSet(ptr noundef %0) local_unnamed_addr #0 {
  %2 = getelementptr inbounds nuw i8, ptr %0, i64 17
  %3 = load i8, ptr %2, align 1, !range !5, !noundef !6
  %4 = trunc nuw i8 %3 to i1
  br i1 %4, label %5, label %BufFileFlush.exit

5:                                                ; preds = %1
  tail call fastcc void @BufFileDumpBuffer(ptr noundef nonnull %0)
  br label %BufFileFlush.exit

BufFileFlush.exit:                                ; preds = %1, %5
  %6 = getelementptr inbounds nuw i8, ptr %0, i64 18
  store i8 1, ptr %6, align 2
  ret void
}